; Function Attrs: nounwind uwtable
define range(i32 0, 2) i32 @BN_mod_lshift(ptr noundef %0, ptr noundef %1, i32 noundef %2, ptr noundef %3, ptr noundef %4) local_unnamed_addr #0 {
  %6 = icmp eq ptr %0, %3
  br i1 %6, label %7, label %8

7:                                                ; preds = %5
  tail call void @ERR_new() #4
  tail call void @ERR_set_debug(ptr noundef nonnull @.str, i32 noundef 22, ptr noundef nonnull @__func__.BN_nnmod) #4
  tail call void (i32, i32, ptr, ...) @ERR_set_error(i32 noundef 3, i32 noundef 524550, ptr noundef null) #4
  br label %BN_nnmod.exit.thread

8:                                                ; preds = %5
  %9 = tail call i32 @BN_div(ptr noundef null, ptr noundef %0, ptr noundef %1, ptr noundef %3, ptr noundef %4) #4
  %.not.i = icmp eq i32 %9, 0
  br i1 %.not.i, label %BN_nnmod.exit.thread, label %10

10:                                               ; preds = %8
  %11 = getelementptr inbounds nuw i8, ptr %0, i64 16
  %12 = load i32, ptr %11, align 8, !tbaa !3
  %.not13.i = icmp eq i32 %12, 0
  br i1 %.not13.i, label %BN_nnmod.exit.thread22, label %BN_nnmod.exit

BN_nnmod.exit:                                    ; preds = %10
  %13 = getelementptr inbounds nuw i8, ptr %3, i64 16
  %14 = load i32, ptr %13, align 8, !tbaa !3
  %.not14.i = icmp eq i32 %14, 0
  %15 = select i1 %.not14.i, ptr @BN_add, ptr @BN_sub
  %16 = tail call i32 %15(ptr noundef nonnull %0, ptr noundef nonnull %0, ptr noundef %3) #4, !callees !10
  %.not = icmp eq i32 %16, 0
  br i1 %.not, label %BN_nnmod.exit.thread, label %BN_nnmod.exit.thread22

BN_nnmod.exit.thread22:                           ; preds = %10, %BN_nnmod.exit
  %17 = getelementptr inbounds nuw i8, ptr %3, i64 16
  %18 = load i32, ptr %17, align 8, !tbaa !3
  %.not18 = icmp eq i32 %18, 0
  br i1 %.not18, label %24, label %19

19:                                               ; preds = %BN_nnmod.exit.thread22
  %20 = tail call ptr @BN_dup(ptr noundef nonnull %3) #4
  %21 = icmp eq ptr %20, null
  br i1 %21, label %BN_nnmod.exit.thread, label %22

22:                                               ; preds = %19
  %23 = getelementptr inbounds nuw i8, ptr %20, i64 16
  store i32 0, ptr %23, align 8, !tbaa !3
  br label %24

24:                                               ; preds = %22, %BN_nnmod.exit.thread22
  %.016 = phi ptr [ %20, %22 ], [ null, %BN_nnmod.exit.thread22 ]
  %.not19 = icmp eq ptr %.016, null
  %25 = select i1 %.not19, ptr %3, ptr %.016
  %26 = tail call i32 @BN_mod_lshift_quick(ptr noundef nonnull %0, ptr noundef nonnull %0, i32 noundef %2, ptr noundef %25)
  tail call void @BN_free(ptr noundef %.016) #4
  br label %BN_nnmod.exit.thread

BN_nnmod.exit.thread:                             ; preds = %8, %7, %19, %BN_nnmod.exit, %24
  %.0 = phi i32 [ %26, %24 ], [ 0, %BN_nnmod.exit ], [ 0, %19 ], [ 0, %7 ], [ 0, %8 ]
  ret i32 %.0
}